target datalayout = "e-m:e-p270:32:32-p271:32:32-p272:64:64-i64:64-i128:128-f80:128-n8:16:32:64-S128"
target triple = "x86_64-pc-linux-gnu"

; Function Attrs: alwaysinline nounwind uwtable
define internal void @store32(ptr noundef %0, i32 noundef %1) #2 {
  %3 = alloca ptr, align 8
  %4 = alloca i32, align 4
  %5 = alloca ptr, align 8
  store ptr %0, ptr %3, align 8, !tbaa !16
  store i32 %1, ptr %4, align 4, !tbaa !14
  call void @llvm.lifetime.start.p0(i64 8, ptr %5) #4
  %6 = load ptr, ptr %3, align 8, !tbaa !16
  store ptr %6, ptr %5, align 8, !tbaa !9
  %7 = load i32, ptr %4, align 4, !tbaa !14
  %8 = lshr i32 %7, 0
  %9 = trunc i32 %8 to i8
  %10 = load ptr, ptr %5, align 8, !tbaa !9
  %11 = getelementptr inbounds i8, ptr %10, i64 0
  store i8 %9, ptr %11, align 1, !tbaa !11
  %12 = load i32, ptr %4, align 4, !tbaa !14
  %13 = lshr i32 %12, 8
  %14 = trunc i32 %13 to i8
  %15 = load ptr, ptr %5, align 8, !tbaa !9
  %16 = getelementptr inbounds i8, ptr %15, i64 1
  store i8 %14, ptr %16, align 1, !tbaa !11
  %17 = load i32, ptr %4, align 4, !tbaa !14
  %18 = lshr i32 %17, 16
  %19 = trunc i32 %18 to i8
  %20 = load ptr, ptr %5, align 8, !tbaa !9
  %21 = getelementptr inbounds i8, ptr %20, i64 2
  store i8 %19, ptr %21, align 1, !tbaa !11
  %22 = load i32, ptr %4, align 4, !tbaa !14
  %23 = lshr i32 %22, 24
  %24 = trunc i32 %23 to i8
  %25 = load ptr, ptr %5, align 8, !tbaa !9
  %26 = getelementptr inbounds i8, ptr %25, i64 3
  store i8 %24, ptr %26, align 1, !tbaa !11
  call void @llvm.lifetime.end.p0(i64 8, ptr %5) #4
  ret void
}

; Function Attrs: alwaysinline nounwind uwtable
define internal void @store_cv_words(ptr noundef %0, ptr noundef %1) #2 {
  %3 = alloca ptr, align 8
  %4 = alloca ptr, align 8
  store ptr %0, ptr %3, align 8, !tbaa !9
  store ptr %1, ptr %4, align 8, !tbaa !4
  %5 = load ptr, ptr %3, align 8, !tbaa !9
  %6 = getelementptr inbounds i8, ptr %5, i64 0
  %7 = load ptr, ptr %4, align 8, !tbaa !4
  %8 = getelementptr inbounds i32, ptr %7, i64 0
  %9 = load i32, ptr %8, align 4, !tbaa !14
  call void @store32(ptr noundef %6, i32 noundef %9)
  %10 = load ptr, ptr %3, align 8, !tbaa !9
  %11 = getelementptr inbounds i8, ptr %10, i64 4
  %12 = load ptr, ptr %4, align 8, !tbaa !4
  %13 = getelementptr inbounds i32, ptr %12, i64 1
  %14 = load i32, ptr %13, align 4, !tbaa !14
  call void @store32(ptr noundef %11, i32 noundef %14)
  %15 = load ptr, ptr %3, align 8, !tbaa !9
  %16 = getelementptr inbounds i8, ptr %15, i64 8
  %17 = load ptr, ptr %4, align 8, !tbaa !4
  %18 = getelementptr inbounds i32, ptr %17, i64 2
  %19 = load i32, ptr %18, align 4, !tbaa !14
  call void @store32(ptr noundef %16, i32 noundef %19)
  %20 = load ptr, ptr %3, align 8, !tbaa !9
  %21 = getelementptr inbounds i8, ptr %20, i64 12
  %22 = load ptr, ptr %4, align 8, !tbaa !4
  %23 = getelementptr inbounds i32, ptr %22, i64 3
  %24 = load i32, ptr %23, align 4, !tbaa !14
  call void @store32(ptr noundef %21, i32 noundef %24)
  %25 = load ptr, ptr %3, align 8, !tbaa !9
  %26 = getelementptr inbounds i8, ptr %25, i64 16
  %27 = load ptr, ptr %4, align 8, !tbaa !4
  %28 = getelementptr inbounds i32, ptr %27, i64 4
  %29 = load i32, ptr %28, align 4, !tbaa !14
  call void @store32(ptr noundef %26, i32 noundef %29)
  %30 = load ptr, ptr %3, align 8, !tbaa !9
  %31 = getelementptr inbounds i8, ptr %30, i64 20
  %32 = load ptr, ptr %4, align 8, !tbaa !4
  %33 = getelementptr inbounds i32, ptr %32, i64 5
  %34 = load i32, ptr %33, align 4, !tbaa !14
  call void @store32(ptr noundef %31, i32 noundef %34)
  %35 = load ptr, ptr %3, align 8, !tbaa !9
  %36 = getelementptr inbounds i8, ptr %35, i64 24
  %37 = load ptr, ptr %4, align 8, !tbaa !4
  %38 = getelementptr inbounds i32, ptr %37, i64 6
  %39 = load i32, ptr %38, align 4, !tbaa !14
  call void @store32(ptr noundef %36, i32 noundef %39)
  %40 = load ptr, ptr %3, align 8, !tbaa !9
  %41 = getelementptr inbounds i8, ptr %40, i64 28
  %42 = load ptr, ptr %4, align 8, !tbaa !4
  %43 = getelementptr inbounds i32, ptr %42, i64 7
  %44 = load i32, ptr %43, align 4, !tbaa !14
  call void @store32(ptr noundef %41, i32 noundef %44)
  ret void
}

; Function Attrs: alwaysinline nounwind uwtable
define internal void @hash_one_portable(ptr noundef %0, i64 noundef %1, ptr noundef %2, i64 noundef %3, i8 noundef zeroext %4, i8 noundef zeroext %5, i8 noundef zeroext %6, ptr noundef %7) #2 {
  %9 = alloca ptr, align 8
  %10 = alloca i64, align 8
  %11 = alloca ptr, align 8
  %12 = alloca i64, align 8
  %13 = alloca i8, align 1
  %14 = alloca i8, align 1
  %15 = alloca i8, align 1
  %16 = alloca ptr, align 8
  %17 = alloca [8 x i32], align 16
  %18 = alloca i8, align 1
  store ptr %0, ptr %9, align 8, !tbaa !9
  store i64 %1, ptr %10, align 8, !tbaa !12
  store ptr %2, ptr %11, align 8, !tbaa !4
  store i64 %3, ptr %12, align 8, !tbaa !12
  store i8 %4, ptr %13, align 1, !tbaa !11
  store i8 %5, ptr %14, align 1, !tbaa !11
  store i8 %6, ptr %15, align 1, !tbaa !11
  store ptr %7, ptr %16, align 8, !tbaa !9
  call void @llvm.lifetime.start.p0(i64 32, ptr %17) #4
  %19 = getelementptr inbounds [8 x i32], ptr %17, i64 0, i64 0
  %20 = load ptr, ptr %11, align 8, !tbaa !4
  call void @llvm.memcpy.p0.p0.i64(ptr align 16 %19, ptr align 4 %20, i64 32, i1 false)
  call void @llvm.lifetime.start.p0(i64 1, ptr %18) #4
  %21 = load i8, ptr %13, align 1, !tbaa !11
  %22 = zext i8 %21 to i32
  %23 = load i8, ptr %14, align 1, !tbaa !11
  %24 = zext i8 %23 to i32
  %25 = or i32 %22, %24
  %26 = trunc i32 %25 to i8
  store i8 %26, ptr %18, align 1, !tbaa !11
  br label %27

27:                                               ; preds = %40, %8
  %28 = load i64, ptr %10, align 8, !tbaa !12
  %29 = icmp ugt i64 %28, 0
  br i1 %29, label %30, label %50

30:                                               ; preds = %27
  %31 = load i64, ptr %10, align 8, !tbaa !12
  %32 = icmp eq i64 %31, 1
  br i1 %32, label %33, label %40

33:                                               ; preds = %30
  %34 = load i8, ptr %15, align 1, !tbaa !11
  %35 = zext i8 %34 to i32
  %36 = load i8, ptr %18, align 1, !tbaa !11
  %37 = zext i8 %36 to i32
  %38 = or i32 %37, %35
  %39 = trunc i32 %38 to i8
  store i8 %39, ptr %18, align 1, !tbaa !11
  br label %40

40:                                               ; preds = %33, %30
  %41 = getelementptr inbounds [8 x i32], ptr %17, i64 0, i64 0
  %42 = load ptr, ptr %9, align 8, !tbaa !9
  %43 = load i64, ptr %12, align 8, !tbaa !12
  %44 = load i8, ptr %18, align 1, !tbaa !11
  call void @blake3_compress_in_place_portable(ptr noundef %41, ptr noundef %42, i8 noundef zeroext 64, i64 noundef %43, i8 noundef zeroext %44)
  %45 = load ptr, ptr %9, align 8, !tbaa !9
  %46 = getelementptr inbounds i8, ptr %45, i64 64
  store ptr %46, ptr %9, align 8, !tbaa !9
  %47 = load i64, ptr %10, align 8, !tbaa !12
  %48 = sub i64 %47, 1
  store i64 %48, ptr %10, align 8, !tbaa !12
  %49 = load i8, ptr %13, align 1, !tbaa !11
  store i8 %49, ptr %18, align 1, !tbaa !11
  br label %27, !llvm.loop !26

50:                                               ; preds = %27
  %51 = load ptr, ptr %16, align 8, !tbaa !9
  %52 = getelementptr inbounds [8 x i32], ptr %17, i64 0, i64 0
  call void @store_cv_words(ptr noundef %51, ptr noundef %52)
  call void @llvm.lifetime.end.p0(i64 1, ptr %18) #4
  call void @llvm.lifetime.end.p0(i64 32, ptr %17) #4
  ret void
}

; Function Attrs: nounwind uwtable
define hidden void @blake3_hash_many_portable(ptr noundef %0, i64 noundef %1, i64 noundef %2, ptr noundef %3, i64 noundef %4, i1 noundef zeroext %5, i8 noundef zeroext %6, i8 noundef zeroext %7, i8 noundef zeroext %8, ptr noundef %9) #0 {
  %11 = alloca ptr, align 8
  %12 = alloca i64, align 8
  %13 = alloca i64, align 8
  %14 = alloca ptr, align 8
  %15 = alloca i64, align 8
  %16 = alloca i8, align 1
  %17 = alloca i8, align 1
  %18 = alloca i8, align 1
  %19 = alloca i8, align 1
  %20 = alloca ptr, align 8
  store ptr %0, ptr %11, align 8, !tbaa !17
  store i64 %1, ptr %12, align 8, !tbaa !12
  store i64 %2, ptr %13, align 8, !tbaa !12
  store ptr %3, ptr %14, align 8, !tbaa !4
  store i64 %4, ptr %15, align 8, !tbaa !12
  %21 = zext i1 %5 to i8
  store i8 %21, ptr %16, align 1, !tbaa !20
  store i8 %6, ptr %17, align 1, !tbaa !11
  store i8 %7, ptr %18, align 1, !tbaa !11
  store i8 %8, ptr %19, align 1, !tbaa !11
  store ptr %9, ptr %20, align 8, !tbaa !9
  br label %22

22:                                               ; preds = %41, %10
  %23 = load i64, ptr %12, align 8, !tbaa !12
  %24 = icmp ugt i64 %23, 0
  br i1 %24, label %25, label %48

25:                                               ; preds = %22
  %26 = load ptr, ptr %11, align 8, !tbaa !17
  %27 = getelementptr inbounds ptr, ptr %26, i64 0
  %28 = load ptr, ptr %27, align 8, !tbaa !9
  %29 = load i64, ptr %13, align 8, !tbaa !12
  %30 = load ptr, ptr %14, align 8, !tbaa !4
  %31 = load i64, ptr %15, align 8, !tbaa !12
  %32 = load i8, ptr %17, align 1, !tbaa !11
  %33 = load i8, ptr %18, align 1, !tbaa !11
  %34 = load i8, ptr %19, align 1, !tbaa !11
  %35 = load ptr, ptr %20, align 8, !tbaa !9
  call void @hash_one_portable(ptr noundef %28, i64 noundef %29, ptr noundef %30, i64 noundef %31, i8 noundef zeroext %32, i8 noundef zeroext %33, i8 noundef zeroext %34, ptr noundef %35)
  %36 = load i8, ptr %16, align 1, !tbaa !20, !range !22, !noundef !23
  %37 = trunc i8 %36 to i1
  br i1 %37, label %38, label %41

38:                                               ; preds = %25
  %39 = load i64, ptr %15, align 8, !tbaa !12
  %40 = add i64 %39, 1
  store i64 %40, ptr %15, align 8, !tbaa !12
  br label %41

41:                                               ; preds = %38, %25
  %42 = load ptr, ptr %11, align 8, !tbaa !17
  %43 = getelementptr inbounds ptr, ptr %42, i64 1
  store ptr %43, ptr %11, align 8, !tbaa !17
  %44 = load i64, ptr %12, align 8, !tbaa !12
  %45 = sub i64 %44, 1
  store i64 %45, ptr %12, align 8, !tbaa !12
  %46 = load ptr, ptr %20, align 8, !tbaa !9
  %47 = getelementptr inbounds i8, ptr %46, i64 32
  store ptr %47, ptr %20, align 8, !tbaa !9
  br label %22, !llvm.loop !24

48:                                               ; preds = %22
  ret void
}