; Function Attrs: nofree norecurse nosync nounwind memory(readwrite, inaccessiblemem: none) uwtable
define hidden void @blake3_hash_many_portable(ptr noundef readonly captures(none) %0, i64 noundef %1, i64 noundef %2, ptr noundef readonly captures(none) %3, i64 noundef %4, i1 noundef zeroext %5, i8 noundef zeroext %6, i8 noundef zeroext %7, i8 noundef zeroext %8, ptr noundef writeonly captures(none) %9) local_unnamed_addr #2 {
  %11 = alloca [8 x i32], align 16
  %.not16 = icmp eq i64 %1, 0
  br i1 %.not16, label %._crit_edge, label %.lr.ph

.lr.ph:                                           ; preds = %10
  %12 = or i8 %7, %6
  %13 = getelementptr inbounds nuw i8, ptr %11, i64 4
  %14 = getelementptr inbounds nuw i8, ptr %11, i64 8
  %15 = getelementptr inbounds nuw i8, ptr %11, i64 12
  %16 = getelementptr inbounds nuw i8, ptr %11, i64 16
  %17 = getelementptr inbounds nuw i8, ptr %11, i64 20
  %18 = getelementptr inbounds nuw i8, ptr %11, i64 24
  %19 = getelementptr inbounds nuw i8, ptr %11, i64 28
  %20 = zext i1 %5 to i64
  br label %21

21:                                               ; preds = %.lr.ph, %hash_one_portable.exit
  %.020 = phi ptr [ %9, %.lr.ph ], [ %126, %hash_one_portable.exit ]
  %.01319 = phi ptr [ %0, %.lr.ph ], [ %124, %hash_one_portable.exit ]
  %.01418 = phi i64 [ %1, %.lr.ph ], [ %125, %hash_one_portable.exit ]
  %.01517 = phi i64 [ %4, %.lr.ph ], [ %spec.select, %hash_one_portable.exit ]
  %22 = load ptr, ptr %.01319, align 8, !tbaa !9
  call void @llvm.lifetime.start.p0(i64 32, ptr nonnull %11) #5
  call void @llvm.memcpy.p0.p0.i64(ptr noundef nonnull align 16 dereferenceable(32) %11, ptr noundef nonnull align 4 dereferenceable(32) %3, i64 32, i1 false)
  br label %23

23:                                               ; preds = %26, %21
  %.014.i = phi i64 [ %2, %21 ], [ %28, %26 ]
  %.013.i = phi ptr [ %22, %21 ], [ %27, %26 ]
  %.0.i = phi i8 [ %12, %21 ], [ %6, %26 ]
  switch i64 %.014.i, label %26 [
    i64 0, label %hash_one_portable.exit
    i64 1, label %24
  ]

24:                                               ; preds = %23
  %25 = or i8 %.0.i, %8
  br label %26

26:                                               ; preds = %24, %23
  %.1.i = phi i8 [ %25, %24 ], [ %.0.i, %23 ]
  call void @blake3_compress_in_place_portable(ptr noundef nonnull %11, ptr noundef %.013.i, i8 noundef zeroext 64, i64 noundef %.01517, i8 noundef zeroext %.1.i)
  %27 = getelementptr inbounds nuw i8, ptr %.013.i, i64 64
  %28 = add i64 %.014.i, -1
  br label %23, !llvm.loop !12

hash_one_portable.exit:                           ; preds = %23
  %29 = load i32, ptr %11, align 16, !tbaa !7
  %30 = trunc i32 %29 to i8
  store i8 %30, ptr %.020, align 1, !tbaa !4
  %31 = lshr i32 %29, 8
  %32 = trunc i32 %31 to i8
  %33 = getelementptr inbounds nuw i8, ptr %.020, i64 1
  store i8 %32, ptr %33, align 1, !tbaa !4
  %34 = lshr i32 %29, 16
  %35 = trunc i32 %34 to i8
  %36 = getelementptr inbounds nuw i8, ptr %.020, i64 2
  store i8 %35, ptr %36, align 1, !tbaa !4
  %37 = lshr i32 %29, 24
  %38 = trunc nuw i32 %37 to i8
  %39 = getelementptr inbounds nuw i8, ptr %.020, i64 3
  store i8 %38, ptr %39, align 1, !tbaa !4
  %40 = getelementptr inbounds nuw i8, ptr %.020, i64 4
  %41 = load i32, ptr %13, align 4, !tbaa !7
  %42 = trunc i32 %41 to i8
  store i8 %42, ptr %40, align 1, !tbaa !4
  %43 = lshr i32 %41, 8
  %44 = trunc i32 %43 to i8
  %45 = getelementptr inbounds nuw i8, ptr %.020, i64 5
  store i8 %44, ptr %45, align 1, !tbaa !4
  %46 = lshr i32 %41, 16
  %47 = trunc i32 %46 to i8
  %48 = getelementptr inbounds nuw i8, ptr %.020, i64 6
  store i8 %47, ptr %48, align 1, !tbaa !4
  %49 = lshr i32 %41, 24
  %50 = trunc nuw i32 %49 to i8
  %51 = getelementptr inbounds nuw i8, ptr %.020, i64 7
  store i8 %50, ptr %51, align 1, !tbaa !4
  %52 = getelementptr inbounds nuw i8, ptr %.020, i64 8
  %53 = load i32, ptr %14, align 8, !tbaa !7
  %54 = trunc i32 %53 to i8
  store i8 %54, ptr %52, align 1, !tbaa !4
  %55 = lshr i32 %53, 8
  %56 = trunc i32 %55 to i8
  %57 = getelementptr inbounds nuw i8, ptr %.020, i64 9
  store i8 %56, ptr %57, align 1, !tbaa !4
  %58 = lshr i32 %53, 16
  %59 = trunc i32 %58 to i8
  %60 = getelementptr inbounds nuw i8, ptr %.020, i64 10
  store i8 %59, ptr %60, align 1, !tbaa !4
  %61 = lshr i32 %53, 24
  %62 = trunc nuw i32 %61 to i8
  %63 = getelementptr inbounds nuw i8, ptr %.020, i64 11
  store i8 %62, ptr %63, align 1, !tbaa !4
  %64 = getelementptr inbounds nuw i8, ptr %.020, i64 12
  %65 = load i32, ptr %15, align 4, !tbaa !7
  %66 = trunc i32 %65 to i8
  store i8 %66, ptr %64, align 1, !tbaa !4
  %67 = lshr i32 %65, 8
  %68 = trunc i32 %67 to i8
  %69 = getelementptr inbounds nuw i8, ptr %.020, i64 13
  store i8 %68, ptr %69, align 1, !tbaa !4
  %70 = lshr i32 %65, 16
  %71 = trunc i32 %70 to i8
  %72 = getelementptr inbounds nuw i8, ptr %.020, i64 14
  store i8 %71, ptr %72, align 1, !tbaa !4
  %73 = lshr i32 %65, 24
  %74 = trunc nuw i32 %73 to i8
  %75 = getelementptr inbounds nuw i8, ptr %.020, i64 15
  store i8 %74, ptr %75, align 1, !tbaa !4
  %76 = getelementptr inbounds nuw i8, ptr %.020, i64 16
  %77 = load i32, ptr %16, align 16, !tbaa !7
  %78 = trunc i32 %77 to i8
  store i8 %78, ptr %76, align 1, !tbaa !4
  %79 = lshr i32 %77, 8
  %80 = trunc i32 %79 to i8
  %81 = getelementptr inbounds nuw i8, ptr %.020, i64 17
  store i8 %80, ptr %81, align 1, !tbaa !4
  %82 = lshr i32 %77, 16
  %83 = trunc i32 %82 to i8
  %84 = getelementptr inbounds nuw i8, ptr %.020, i64 18
  store i8 %83, ptr %84, align 1, !tbaa !4
  %85 = lshr i32 %77, 24
  %86 = trunc nuw i32 %85 to i8
  %87 = getelementptr inbounds nuw i8, ptr %.020, i64 19
  store i8 %86, ptr %87, align 1, !tbaa !4
  %88 = getelementptr inbounds nuw i8, ptr %.020, i64 20
  %89 = load i32, ptr %17, align 4, !tbaa !7
  %90 = trunc i32 %89 to i8
  store i8 %90, ptr %88, align 1, !tbaa !4
  %91 = lshr i32 %89, 8
  %92 = trunc i32 %91 to i8
  %93 = getelementptr inbounds nuw i8, ptr %.020, i64 21
  store i8 %92, ptr %93, align 1, !tbaa !4
  %94 = lshr i32 %89, 16
  %95 = trunc i32 %94 to i8
  %96 = getelementptr inbounds nuw i8, ptr %.020, i64 22
  store i8 %95, ptr %96, align 1, !tbaa !4
  %97 = lshr i32 %89, 24
  %98 = trunc nuw i32 %97 to i8
  %99 = getelementptr inbounds nuw i8, ptr %.020, i64 23
  store i8 %98, ptr %99, align 1, !tbaa !4
  %100 = getelementptr inbounds nuw i8, ptr %.020, i64 24
  %101 = load i32, ptr %18, align 8, !tbaa !7
  %102 = trunc i32 %101 to i8
  store i8 %102, ptr %100, align 1, !tbaa !4
  %103 = lshr i32 %101, 8
  %104 = trunc i32 %103 to i8
  %105 = getelementptr inbounds nuw i8, ptr %.020, i64 25
  store i8 %104, ptr %105, align 1, !tbaa !4
  %106 = lshr i32 %101, 16
  %107 = trunc i32 %106 to i8
  %108 = getelementptr inbounds nuw i8, ptr %.020, i64 26
  store i8 %107, ptr %108, align 1, !tbaa !4
  %109 = lshr i32 %101, 24
  %110 = trunc nuw i32 %109 to i8
  %111 = getelementptr inbounds nuw i8, ptr %.020, i64 27
  store i8 %110, ptr %111, align 1, !tbaa !4
  %112 = getelementptr inbounds nuw i8, ptr %.020, i64 28
  %113 = load i32, ptr %19, align 4, !tbaa !7
  %114 = trunc i32 %113 to i8
  store i8 %114, ptr %112, align 1, !tbaa !4
  %115 = lshr i32 %113, 8
  %116 = trunc i32 %115 to i8
  %117 = getelementptr inbounds nuw i8, ptr %.020, i64 29
  store i8 %116, ptr %117, align 1, !tbaa !4
  %118 = lshr i32 %113, 16
  %119 = trunc i32 %118 to i8
  %120 = getelementptr inbounds nuw i8, ptr %.020, i64 30
  store i8 %119, ptr %120, align 1, !tbaa !4
  %121 = lshr i32 %113, 24
  %122 = trunc nuw i32 %121 to i8
  %123 = getelementptr inbounds nuw i8, ptr %.020, i64 31
  store i8 %122, ptr %123, align 1, !tbaa !4
  call void @llvm.lifetime.end.p0(i64 32, ptr nonnull %11) #5
  %spec.select = add i64 %.01517, %20
  %124 = getelementptr inbounds nuw i8, ptr %.01319, i64 8
  %125 = add i64 %.01418, -1
  %126 = getelementptr inbounds nuw i8, ptr %.020, i64 32
  %.not = icmp eq i64 %125, 0
  br i1 %.not, label %._crit_edge, label %21, !llvm.loop !14

._crit_edge:                                      ; preds = %hash_one_portable.exit, %10
  ret void
}